target datalayout = "e-m:e-p270:32:32-p271:32:32-p272:64:64-i64:64-i128:128-f80:128-n8:16:32:64-S128"
target triple = "x86_64-pc-linux-gnu"

%"class.folly::AsyncTimeout" = type { ptr, %"class.folly::EventBaseEvent", ptr, %"class.std::shared_ptr" }
%"class.folly::EventBaseEvent" = type { %struct.event, ptr, ptr, ptr, %"struct.folly::EventCallback" }
%struct.event = type { %struct.event_callback, %union.anon.0, i32, ptr, %union.anon.2, i16, i16, %struct.timeval }
%struct.event_callback = type { %struct.anon, i16, i8, i8, %union.anon, ptr }
%struct.anon = type { ptr, ptr }
%union.anon = type { ptr }
%union.anon.0 = type { %struct.anon.1 }
%struct.anon.1 = type { ptr, ptr }
%union.anon.2 = type { %struct.anon.3 }
%struct.anon.3 = type { %struct.anon.4, %struct.timeval }
%struct.anon.4 = type { ptr, ptr }
%struct.timeval = type { i64, i64 }
%"struct.folly::EventCallback" = type { i32, %union.anon.7 }
%union.anon.7 = type { ptr }
%"class.std::shared_ptr" = type { %"class.std::__shared_ptr" }
%"class.std::__shared_ptr" = type { ptr, %"class.std::__shared_count" }
%"class.std::__shared_count" = type { ptr }

; Function Attrs: mustprogress uwtable
define void @_ZN5folly12AsyncTimeout20attachTimeoutManagerEPNS_14TimeoutManagerENS1_12InternalEnumE(ptr noundef nonnull align 8 dereferenceable(200) %0, ptr noundef %1, i32 noundef %2) #1 align 2 {
  %4 = alloca ptr, align 8
  %5 = alloca ptr, align 8
  %6 = alloca i32, align 4
  store ptr %0, ptr %4, align 8, !tbaa !7
  store ptr %1, ptr %5, align 8, !tbaa !12
  store i32 %2, ptr %6, align 4, !tbaa !14
  %7 = load ptr, ptr %4, align 8
  %8 = load ptr, ptr %5, align 8, !tbaa !12
  %9 = getelementptr inbounds nuw %"class.folly::AsyncTimeout", ptr %7, i32 0, i32 2
  store ptr %8, ptr %9, align 8, !tbaa !18
  %10 = getelementptr inbounds nuw %"class.folly::AsyncTimeout", ptr %7, i32 0, i32 2
  %11 = load ptr, ptr %10, align 8, !tbaa !18
  %12 = load i32, ptr %6, align 4, !tbaa !14
  %13 = load ptr, ptr %11, align 8, !tbaa !16
  %14 = getelementptr inbounds ptr, ptr %13, i64 2
  %15 = load ptr, ptr %14, align 8
  call void %15(ptr noundef nonnull align 8 dereferenceable(16) %11, ptr noundef %7, i32 noundef %12)
  ret void
}

; Function Attrs: mustprogress uwtable
define void @_ZN5folly12AsyncTimeout15attachEventBaseEPNS_9EventBaseENS_14TimeoutManager12InternalEnumE(ptr noundef nonnull align 8 dereferenceable(200) %0, ptr noundef %1, i32 noundef %2) #1 align 2 {
  %4 = alloca ptr, align 8
  %5 = alloca ptr, align 8
  %6 = alloca i32, align 4
  store ptr %0, ptr %4, align 8, !tbaa !7
  store ptr %1, ptr %5, align 8, !tbaa !68
  store i32 %2, ptr %6, align 4, !tbaa !14
  %7 = load ptr, ptr %4, align 8
  %8 = load ptr, ptr %5, align 8, !tbaa !68
  %9 = load i32, ptr %6, align 4, !tbaa !14
  call void @_ZN5folly12AsyncTimeout20attachTimeoutManagerEPNS_14TimeoutManagerENS1_12InternalEnumE(ptr noundef nonnull align 8 dereferenceable(200) %7, ptr noundef %8, i32 noundef %9)
  ret void
}